MPASM  5.41                        PRUEBA.ASM   11-27-2012  14:24:40         PAGE  1


LOC  OBJECT CODE     LINE SOURCE TEXT
  VALUE

Warning[205]: Found directive in column 1. (LIST)
                      00001 LIST    P=18F8722
                      00002 #INCLUDE                <P18F8722.INC>
                      00001         LIST
                      00002 
                      00003 ;==========================================================================
                      00004 ;  MPASM PIC18F8722 processor include
                      00005 ; 
                      00006 ;  (c) Copyright 1999-2011 Microchip Technology, All rights reserved
                      00007 ;==========================================================================
                      00008 
                      02505         LIST
                      00003     #DEFINE      LCD         PORTA,2                     ; 1 = Habilita el LCD   / 0 = Deshabilita el LC
                            D
                      00004     #DEFINE      RST_LCD     PORTF,6                     ; 1 = No reinicia       / 0 = Reinicia
                      00005     #DEFINE      LCD_RS      VALA,7                      ; 1 = Envia dato al LCD / 0 = Envia instruccion
                             al LCD
                      00006     #DEFINE      LCD_EN      VALA,6                      ; 1 = Prende el LCD     / 0 = Apaga el LCD
  00000021            00007 CONT    EQU             0X21
  00000022            00008 CONT2   EQU             0X22
  00000023            00009 TMP_TX  EQU             0X23
  00000024            00010 STATE   EQU             0X24
  00000025            00011 DATO    EQU             0X25
                      00012 
02 1F 1E F3 03 85 FF C00013         CONFIG  CP0=OFF
       0 FF E0 FF 40 
                      00014         CONFIG  OSC=HS
                      00015         CONFIG  WDT=OFF
                      00016         CONFIG  MCLRE=OFF
                      00017         CONFIG  LVP=ON
                      00018         CONFIG  PWRT=OFF
                      00019 
000000                00020                         ORG             0X00
000000 EC21 F000      00021                         CALL    CONF
000004 EF4D F000      00022                         GOTO    MAIN
000008                00023                         ORG             0X08
                      00024 
000008                00025 INT_CALL
000008 9EF2           00026                         BCF             INTCON,7
00000A AA9E           00027                         BTFSS   PIR1,5
00000C EF18 F000      00028                         GOTO    INT_END
000010 50AE           00029                         MOVF    RCREG1,W
000012 6E23           00030                         MOVWF   TMP_TX
000014 6E83           00031                         MOVWF   PORTD
000016 0E30           00032                         MOVLW   '0'
000018 5E23           00033                         SUBWF   TMP_TX
00001A A023           00034                         BTFSS   TMP_TX,0
00001C EF19 F000      00035                         GOTO    CLEAR
000020 0EFF           00036                         MOVLW   0XFF
000022 6E83           00037                         MOVWF   PORTD
000024 6E24           00038                         MOVWF   STATE
000026 EC60 F000      00039                         CALL    ESCRIBIR
00002A EC7D F000      00040                         CALL    ESCRIBIR_ON
MPASM  5.41                        PRUEBA.ASM   11-27-2012  14:24:40         PAGE  2


LOC  OBJECT CODE     LINE SOURCE TEXT
  VALUE

00002E 9A9E           00041                         BCF             PIR1,5
                      00042                         
000030                00043 INT_END
000030 0010           00044                         RETFIE
                      00045 
000032                00046 CLEAR
000032 EC8A F000      00047                         CALL    ESCRIBIR_OFF
000036 6A83           00048                         CLRF    PORTD
000038 6A24           00049                         CLRF    STATE
00003A EC60 F000      00050                         CALL    ESCRIBIR
00003E 9A9E           00051                         BCF             PIR1,5
000040 0010           00052                         RETFIE
000042                00053 CONF
000042 010F           00054                         BANKSEL BAUDCON
000044 6A7E           00055                         CLRF    BAUDCON
000046 010F           00056                         BANKSEL TRISD
000048 0EFF           00057                         MOVLW   0XFF
00004A 6E93           00058                         MOVWF   TRISB
00004C 6A94           00059                         CLRF    TRISC
00004E 8498           00060                         BSF             TRISG,2
000050 8E94           00061                         BSF             TRISC,7
000052 6A95           00062                         CLRF    TRISD
000054 0E20           00063                         MOVLW   B'00100000'
000056 6E9D           00064                         MOVWF   PIE1
000058 0E40           00065                         MOVLW   B'01000000'
00005A 6EF2           00066                         MOVWF   INTCON
00005C 0E40           00067                         MOVLW   D'64'
00005E 6EAF           00068                         MOVWF   SPBRG
000060 0E24           00069                         MOVLW   B'00100100'
000062 6EAC           00070                         MOVWF   TXSTA
000064 010F           00071                         BANKSEL PORTA
000066 0E80           00072                         MOVLW   B'10000000'
000068 6EAB           00073                         MOVWF   RCSTA1
                      00074 
00006A 6A23           00075                         CLRF    TMP_TX
00006C 8EF2           00076                         BSF             INTCON,7
00006E 88AB           00077                         BSF             RCSTA1,4
                      00078 
000070 010F           00079                         BANKSEL TRISA
000072 9492           00080                         BCF             TRISA,2
000074 9C97           00081                         BCF             TRISF,6
000076 010F           00082                         BANKSEL TRISC
000078 9694           00083                         BCF             TRISC,3
00007A 9A94           00084                         BCF             TRISC,5
00007C 010F           00085                         BANKSEL PORTC
00007E 6A82           00086                         CLRF    PORTC
000080 6A83           00087                         CLRF    PORTD
000082 8480           00088                         BSF     LCD                                          ; habilita el display LCD
000084 9C85           00089                 BCF     RST_LCD                                      ; reinicia el display LCD
000086 EC55 F000      00090                 CALL    DELAY                                    ; llama a LIT_DELAY
00008A 8C85           00091                 BSF     RST_LCD                                      ; no reinicia el LCD
00008C EC9A F000      00092                 CALL    CONFIG_SPI                                   ; configura la comunicacion serial 
                            para el LCD
MPASM  5.41                        PRUEBA.ASM   11-27-2012  14:24:40         PAGE  3


LOC  OBJECT CODE     LINE SOURCE TEXT
  VALUE

000090 ECBF F000      00093                 CALL    INI_LCD
000094 8C00           00094                         BSF             LCD_EN 
000096 8E00           00095                         BSF             LCD_RS  
000098 0012           00096                         RETURN
                      00097 
                      00098 
                      00099                         
00009A                00100 MAIN
00009A 8C00           00101                         BSF     LCD_EN                                       ; LCD_EN = 1 / prende el di
                            splay LCD
00009C 9E00           00102                 BCF     LCD_RS                                       ; LCD_RS = 0 / indica que se va a e
                            nviar una instruccion
00009E 0E01           00103                 MOVLW   b'00000001'                                  ; se carga la instruccion que limpi
                            a el LCD
0000A0 ECD2 F000      00104                 CALL    PRINT                                        ; envia la instruccion
0000A4 8E00           00105                 BSF     LCD_RS 
0000A6 EF4D F000      00106                         GOTO    MAIN
                      00107 
                      00108 
0000AA                00109 DELAY: 
0000AA 0E0A           00110                         MOVLW   d'10'   ;Asigna el valor 7 a W
0000AC 6E22           00111                         MOVWF   CONT2   ;Asigna el valor de W a CONT2
0000AE 0EFA           00112                         MOVLW   d'250'  ;Asigna a W el valor 250
0000B0 6E21           00113                         MOVWF   CONT    ;Asigna el valor de W a CONT
0000B2 0000           00114                         NOP
0000B4 2E21           00115                         DECFSZ  CONT
0000B6 EF5A F000      00116                         GOTO    $-.2    ;Vuelve a la linea del NOP
0000BA 2E22           00117                         DECFSZ  CONT2
0000BC D7FC           00118                         BRA     $-.6    ;Vuelve donde se asigna el valor de CONT2, para resetearlo
0000BE 0012           00119                         RETURN
                      00120 
                      00121 
0000C0                00122 ESCRIBIR:
0000C0 9EF2           00123                         BCF             INTCON,GIE
0000C2 010F           00124                         BANKSEL EEADR
0000C4 0E11           00125                         MOVLW   0X11
0000C6 6EA9           00126                         MOVWF   EEADR
0000C8 0E24           00127                         MOVLW   STATE
0000CA 6EA8           00128                         MOVWF   EEDATA
0000CC 010F           00129                         BANKSEL EECON1
0000CE 9EA6           00130                         BCF             EECON1,EEPGD
0000D0 84A6           00131                         BSF             EECON1,WREN
0000D2 0E55           00132                         MOVLW   55H
0000D4 6EA7           00133                         MOVWF   EECON2
0000D6 0EAA           00134                         MOVLW   0XAA
0000D8 6EA7           00135                         MOVWF   EECON2
0000DA 82A6           00136                         BSF             EECON1,WR
0000DC B2A6           00137                         BTFSC   EECON1,WR
Warning[226]: Destination address must be word aligned
0000DE D7FE           00138                         BRA             $-1
0000E0 94A6           00139                         BCF             EECON1,WREN
0000E2 0100           00140                         BANKSEL 0
0000E4 0012           00141                         RETURN
MPASM  5.41                        PRUEBA.ASM   11-27-2012  14:24:40         PAGE  4


LOC  OBJECT CODE     LINE SOURCE TEXT
  VALUE

                      00142 
0000E6                00143 LEER:
0000E6 010F           00144                         BANKSEL EEADR
0000E8 0E11           00145                         MOVLW   0X11
0000EA 6EA9           00146                         MOVWF   EEADR
0000EC 010F           00147                         BANKSEL EECON1
0000EE 9EA6           00148                         BCF             EECON1,EEPGD
0000F0 80A6           00149                         BSF             EECON1,RD
0000F2 010F           00150                         BANKSEL EEDATA
0000F4 50A8           00151                         MOVF    EEDATA,W
0000F6 0100           00152                         BANKSEL 0
0000F8 0012           00153                         RETURN
                      00154 
0000FA                00155 ESCRIBIR_ON:
0000FA 8C00           00156                         BSF     LCD_EN                                       ; LCD_EN = 1 / prende el di
                            splay LCD
0000FC 9E00           00157                 BCF     LCD_RS                                       ; LCD_RS = 0 / indica que se va a e
                            nviar una instruccion
0000FE 0E01           00158                 MOVLW   b'00000001'                                  ; se carga la instruccion que limpi
                            a el LCD
000100 ECD2 F000      00159                 CALL    PRINT                                        ; envia la instruccion
000104 8E00           00160                 BSF     LCD_RS                                   
000106 0E4F           00161                         MOVLW   'O'
000108 ECD2 F000      00162                         CALL    PRINT
00010C 0E4E           00163                         MOVLW   'N'
00010E ECD2 F000      00164                         CALL    PRINT
000112 0012           00165                         RETURN
                      00166 
000114                00167 ESCRIBIR_OFF:
000114 8C00           00168                     BSF     LCD_EN                                       ; LCD_EN = 1 / prende el displa
                            y LCD
000116 9E00           00169                 BCF     LCD_RS                                       ; LCD_RS = 0 / indica que se va a e
                            nviar una instruccion
000118 0E01           00170                 MOVLW   b'00000001'                                  ; se carga la instruccion que limpi
                            a el LCD
00011A ECD2 F000      00171                 CALL    PRINT                                        ; envia la instruccion
00011E 8E00           00172                 BSF     LCD_RS 
000120 0E4F           00173                         MOVLW   'O'
000122 ECD2 F000      00174                         CALL    PRINT
000126 0E46           00175                         MOVLW   'F'
000128 ECD2 F000      00176                         CALL    PRINT
00012C 0E46           00177                         MOVLW   'F'
00012E ECD2 F000      00178                         CALL    PRINT
000132 0012           00179                         RETURN
                      00180                         
                      00181 
                      00182                         #INCLUDE <Lib_LCD_18F.INC>
                      00001 ;=======================================================================================================
                            ============
                      00002 ;                                 LIBRERIA LCD PARA PIC18 EXPLORER BOARD
                      00003 ;=======================================================================================================
                            ============
                      00004 ;
MPASM  5.41                        PRUEBA.ASM   11-27-2012  14:24:40         PAGE  5


LOC  OBJECT CODE     LINE SOURCE TEXT
  VALUE

                      00005 ;Se deben definir las siguientes variables para el correcto funcionamiento de la libreria:
                      00006 ;       #DEFINE LCD     PORTA,2                         ;1= Habilita LCD / 0= Deshabilita LCD
                      00007 ;       #DEFINE RST_LCD PORTF,6                         ;1= No resetea / 0= Resetea
                      00008 ;       #DEFINE LCD_RS  VALA,7                          ;1= Envia dato al LCD / 0= Envia Instruccion al 
                            LCD
                      00009 ;       #DEFINE LCD_EN  VALA,6                          ;1= Prende LCD / 0= Apaga LCD
                      00010 ;Los siguientes pines se deben configurar de la siguiente manera:
                      00011 ;PORTA,2 = OUT
                      00012 ;PORTF,6 = OUT
                      00013 ;PORTC,3 = OUT
                      00014 ;PORTC,5 = OUT
                      00015 ;=======================================================================================================
                            ============
                      00016 ; Incluir libreria para LCD al final del programa       #INCLUDE        <Lib_LCD_18F.INC>
                      00017 ; Instrucciones para LCD
                      00018 ; CALL  PRINT           / Envia lo que esta en W al LCD
                      00019 ; CALL  CONFIG_SPI      / Inicializa el chip SPI
                      00020 ; CALL  INI_LCD         / Inicializa el modulo LCD (Configuracion basica)
                      00021 ;       LCD                     en              1= Habilita LCD / 0= Deshabilita LCD
                      00022 ;       RST_LCD         en              1= No resetea / 0= Resetea
                      00023 ;       LCD_RS          en              1= Envia dato al LCD / 0= Envia Instruccion al LCD
                      00024 ;       LCD_EN          en              1= Prende LCD / 0= Apaga LCD
                      00025 ;=====================================Inicio de la libreria=============================================
                            ===============
                      00026         LIST            P=18F8722               ;Indica que PIC se utilizara
Message[313]: CBLOCK constants will start with a value of 0.
                      00027         CBLOCK                                          ;Declaracion de variables
  00000000            00028         VALA                                            ;                       "
  00000001            00029         VALB                                            ;                       "
                      00030         ENDC                                            ;Termina la declaracion de variables
                      00031 ;===============================================CONFIG_SPI==============================================
                            ====
000134                00032 CONFIG_SPI
000134 010F           00033         BANKSEL SSP1STAT                        ;Cambia de banco
000136 6AC7           00034         CLRF    SSP1STAT                        ;Limpia el SSP1STAT
000138 0E40           00035         MOVLW   B'01000000'             ;Pone el SPI en modo Maestro
00013A 6EC7           00036         MOVWF   SSP1STAT                        ;cke = 0 (modo 1,1)
00013C 010F           00037         BANKSEL SSP1CON1                        ;Cambia de banco
00013E 6AC6           00038         CLRF    SSP1CON1                        ;Limpia el SSP1CON
000140 0E22           00039         MOVLW   B'00100010'             ;Enciende el SPI
000142 6EC6           00040         MOVWF   SSP1CON1                        ;clk/16,ckp=1(modo 1,1)
                      00041 ;==========================================CONFIG_PORTA=================================================
                            ====
                      00042 ;Envia los datos a travez del puerto serial para configurar el puerto A del chip MCP23S17
                      00043 ;=======================================================================================================
                            ======
000144 9480           00044         BCF             LCD                                     ;Limpia LCD (PortA,2)
000146 0E40           00045         MOVLW   0x40                            ;Cargas un 40 Hexa. a W
000148 6EC9           00046         MOVWF   SSP1BUF                         ;Envia lo que esta en W al Bufer del SPI
00014A EC37 F002      00047         CALL    CHEK                            ;Llama a Chek para revisar si ya se envio el dato
00014E 0E00           00048         MOVLW   0x00                            ;Mueve un 0 Hex. a W
000150 6EC9           00049         MOVWF   SSP1BUF                         ;Envia lo que esta en W al Bufer del SPI
000152 EC37 F002      00050         CALL    CHEK                            ;Llama a Chek para revisar si ya se envio el dato
MPASM  5.41                        PRUEBA.ASM   11-27-2012  14:24:40         PAGE  6


LOC  OBJECT CODE     LINE SOURCE TEXT
  VALUE

000156 0E00           00051         MOVLW   0x00                            ;Mueve un 0 Hex. a W
000158 6EC9           00052         MOVWF   SSP1BUF                         ;Envia lo que esta en W al Bufer del SPI
00015A EC37 F002      00053         CALL    CHEK                            ;Llama a Chek para revisar si ya se envio el dato
00015E 8480           00054         BSF             LCD                                     ;Setea LCD (PortA,2)
                      00055 ;==================================================CONFIG_PORTB=========================================
                            ====
                      00056 ;Envia los datos a travez del puerto serial para configurar el puerto B del chip MCP23S17
                      00057 ;=======================================================================================================
                            ======
000160 9480           00058         bcf             LCD                                     ;Limpia LCD (PortA,2)
000162 0E40           00059         movlw   0x40                            ;Cargas un 40 Hexa. a W
000164 6EC9           00060         movwf   SSP1BUF                         ;Envia lo que esta en W al Bufer del SPI
000166 EC37 F002      00061         call    CHEK                            ;Llama a Chek para revisar si ya se envio el dato
00016A 0E01           00062         movlw   0x01                            ;Mueve un 1 Hex. a W
00016C 6EC9           00063         movwf   SSP1BUF                         ;Envia lo que esta en W al Bufer del SPI
00016E EC37 F002      00064         call    CHEK                            ;Llama a Chek para revisar si ya se envio el dato
000172 0E00           00065         movlw   0x00                            ;Mueve un 0 Hex. a W
000174 6EC9           00066         movwf   SSP1BUF                         ;Envia lo que esta en W al Bufer del SPI
000176 EC37 F002      00067         call    CHEK                            ;Llama a Chek para revisar si ya se envio el dato
00017A 8480           00068         bsf             LCD                                     ;Setea LCD (PortA,2)
00017C 0012           00069         RETURN                                          ;Retorna a la siguiente linea del Call
                      00070 ;===================================================INICIALIZA LCD======================================
                            =========
                      00071 ;Configura el LCD como:8 Bits, N°de lineas=2, Caracter =5x7, cursor apagado,incrementa posicion de curso
                            r y texto no se desplaza
                      00072 ;=======================================================================================================
                            =========
00017E                00073 INI_LCD
00017E 0E7F           00074         MOVLW   B'01111111'                     ;RS=0 /ENVIA INSTRUCCION Y E=1 /HABILITA EL MODULO LCD
000180 6E00           00075         MOVWF   VALA                            ;Carga lo que esta en W a la variable VALA que represent
                            a el puerto A del MCP23S17
000182 0E38           00076         MOVLW   B'00111000'                     ;Instruccion que se quiere enviar al LCD(bus de 8 Bits, 
                            N°de lineas=2, Caracter =5x7)
000184 6E01           00077         MOVWF   VALB                            ;Carga lo que esta en W a la variable VALB que represent
                            a el puerto B del MCP23S17
000186 ECDA F001      00078         CALL    INSTRUCCION                     ;Llama a rutina instruccion qeu se encarga de enviar los
                             datos por el SPI
00018A 0E0C           00079         MOVLW   B'00001100'                     ;Instruccion que se quiere enviar al LCD(Pantalla encend
                            ida, Cursor apagado y sin intermitencia)
00018C 6E01           00080         MOVWF   VALB                            ;Carga lo que esta en W a la variable VALB que represent
                            a el puerto B del MCP23S17
00018E ECDA F001      00081         CALL    INSTRUCCION                     ;Llama a rutina instruccion qeu se encarga de enviar los
                             datos por el SPI
000192 0E01           00082         MOVLW   B'00000001'                     ;Instruccion que se quiere enviar al LCD(Limpia la panta
                            lla y retorna a HOME)
000194 6E01           00083         MOVWF   VALB                            ;Carga lo que esta en W a la variable VALB que represent
                            a el puerto B del MCP23S17
000196 ECDA F001      00084         CALL    INSTRUCCION                     ;Llama a rutina instruccion qeu se encarga de enviar los
                             datos por el SPI
00019A 0E06           00085         MOVLW   B'00000110'                     ;Instruccion que se quiere enviar al LCD(Incrementa posi
                            cion de cursor y texto no se desplaza)
00019C 6E01           00086         MOVWF   VALB                            ;Carga lo que esta en W a la variable VALB que represent
                            a el puerto B del MCP23S17
MPASM  5.41                        PRUEBA.ASM   11-27-2012  14:24:40         PAGE  7


LOC  OBJECT CODE     LINE SOURCE TEXT
  VALUE

00019E ECDA F001      00087         CALL    INSTRUCCION                     ;Llama a rutina instruccion qeu se encarga de enviar los
                             datos por el SPI
0001A2 0012           00088         RETURN
                      00089 ;=============================================RUTINA PRINT==============================================
                            ========
                      00090 ;Rutina que carga el contenido de W en la variable VALB para que esta sea enviada por el puerto serial (
                            SPI)
                      00091 ;=======================================================================================================
                            ========
0001A4                00092 PRINT
0001A4 6E01           00093         MOVWF   VALB                            ;Carga lo que viene en W a la variable VALB que represen
                            ta el puero B del MCP23S17
0001A6 ECDA F001      00094         CALL    INSTRUCCION                     ;Llama a INSTRUCCION (Rurina que se encarga de enviar lo
                            s datos por el SPI)
0001AA 0012           00095         RETURN                                          ;Retorna del LLamado
                      00096 ;=============================================PRINT_LETRA===============================================
                            =======
                      00097 ;Rutina que carga una letra en W y la envia a  VALB para que esta sea enviada por el puerto serial (SPI)
                      00098 ;=======================================================================================================
                            ========
0001AC                00099 PRINT_A
0001AC 0E41           00100         MOVLW   'A'
0001AE ECD2 F000      00101         CALL    PRINT
0001B2 0012           00102         RETURN
0001B4                00103 PRINT_B
0001B4 0E42           00104         MOVLW   'B'
0001B6 ECD2 F000      00105         CALL    PRINT
0001BA 0012           00106         RETURN
0001BC                00107 PRINT_C
0001BC 0E43           00108         MOVLW   'C'
0001BE ECD2 F000      00109         CALL    PRINT
0001C2 0012           00110         RETURN
0001C4                00111 PRINT_D
0001C4 0E44           00112         MOVLW   'D'
0001C6 ECD2 F000      00113         CALL    PRINT
0001CA 0012           00114         RETURN
0001CC                00115 PRINT_E
0001CC 0E45           00116         MOVLW   'E'
0001CE ECD2 F000      00117         CALL    PRINT
0001D2 0012           00118         RETURN
0001D4                00119 PRINT_F
0001D4 0E46           00120         MOVLW   'F'
0001D6 ECD2 F000      00121         CALL    PRINT
0001DA 0012           00122         RETURN
0001DC                00123 PRINT_G
0001DC 0E47           00124         MOVLW   'G'
0001DE ECD2 F000      00125         CALL    PRINT
0001E2 0012           00126         RETURN
0001E4                00127 PRINT_H
0001E4 0E48           00128         MOVLW   'H'
0001E6 ECD2 F000      00129         CALL    PRINT
0001EA 0012           00130         RETURN
0001EC                00131 PRINT_I
MPASM  5.41                        PRUEBA.ASM   11-27-2012  14:24:40         PAGE  8


LOC  OBJECT CODE     LINE SOURCE TEXT
  VALUE

0001EC 0E49           00132         MOVLW   'I'
0001EE ECD2 F000      00133         CALL    PRINT
0001F2 0012           00134         RETURN
0001F4                00135 PRINT_J
0001F4 0E4A           00136         MOVLW   'J'
0001F6 ECD2 F000      00137         CALL    PRINT
0001FA 0012           00138         RETURN
0001FC                00139 PRINT_K
0001FC 0E4B           00140         MOVLW   'K'
0001FE ECD2 F000      00141         CALL    PRINT
000202 0012           00142         RETURN
000204                00143 PRINT_L
000204 0E4C           00144         MOVLW   'L'
000206 ECD2 F000      00145         CALL    PRINT
00020A 0012           00146         RETURN
00020C                00147 PRINT_M
00020C 0E4D           00148         MOVLW   'M'
00020E ECD2 F000      00149         CALL    PRINT
000212 0012           00150         RETURN
000214                00151 PRINT_N
000214 0E4E           00152         MOVLW   'N'
000216 ECD2 F000      00153         CALL    PRINT
00021A 0012           00154         RETURN
00021C                00155 PRINT_Ñ
00021C 0ED1           00156         MOVLW   'Ñ'
00021E ECD2 F000      00157         CALL    PRINT
000222 0012           00158         RETURN
000224                00159 PRINT_O
000224 0E4F           00160         MOVLW   'O'
000226 ECD2 F000      00161         CALL    PRINT
00022A 0012           00162         RETURN
00022C                00163 PRINT_P
00022C 0E50           00164         MOVLW   'P'
00022E ECD2 F000      00165         CALL    PRINT
000232 0012           00166         RETURN
000234                00167 PRINT_Q
000234 0E51           00168         MOVLW   'Q'
000236 ECD2 F000      00169         CALL    PRINT
00023A 0012           00170         RETURN
00023C                00171 PRINT_R
00023C 0E52           00172         MOVLW   'R'
00023E ECD2 F000      00173         CALL    PRINT
000242 0012           00174         RETURN
000244                00175 PRINT_S
000244 0E53           00176         MOVLW   'S'
000246 ECD2 F000      00177         CALL    PRINT
00024A 0012           00178         RETURN
00024C                00179 PRINT_T
00024C 0E54           00180         MOVLW   'T'
00024E ECD2 F000      00181         CALL    PRINT
000252 0012           00182         RETURN
000254                00183 PRINT_U
000254 0E55           00184         MOVLW   'U'
MPASM  5.41                        PRUEBA.ASM   11-27-2012  14:24:40         PAGE  9


LOC  OBJECT CODE     LINE SOURCE TEXT
  VALUE

000256 ECD2 F000      00185         CALL    PRINT
00025A 0012           00186         RETURN
00025C                00187 PRINT_V
00025C 0E56           00188         MOVLW   'V'
00025E ECD2 F000      00189         CALL    PRINT
000262 0012           00190         RETURN
000264                00191 PRINT_W
000264 0E57           00192         MOVLW   'W'
000266 ECD2 F000      00193         CALL    PRINT
00026A 0012           00194         RETURN
00026C                00195 PRINT_X
00026C 0E58           00196         MOVLW   'X'
00026E ECD2 F000      00197         CALL    PRINT
000272 0012           00198         RETURN
000274                00199 PRINT_Y
000274 0E59           00200         MOVLW   'Y'
000276 ECD2 F000      00201         CALL    PRINT
00027A 0012           00202         RETURN
00027C                00203 PRINT_Z
00027C 0E5A           00204         MOVLW   'Z'
00027E ECD2 F000      00205         CALL    PRINT
000282 0012           00206         RETURN
000284                00207 PRINT_a
000284 0E61           00208         MOVLW   'a'
000286 ECD2 F000      00209         CALL    PRINT
00028A 0012           00210         RETURN
00028C                00211 PRINT_b
00028C 0E62           00212         MOVLW   'b'
00028E ECD2 F000      00213         CALL    PRINT
000292 0012           00214         RETURN
000294                00215 PRINT_c
000294 0E63           00216         MOVLW   'c'
000296 ECD2 F000      00217         CALL    PRINT
00029A 0012           00218         RETURN
00029C                00219 PRINT_d
00029C 0E64           00220         MOVLW   'd'
00029E ECD2 F000      00221         CALL    PRINT
0002A2 0012           00222         RETURN
0002A4                00223 PRINT_e
0002A4 0E65           00224         MOVLW   'e'
0002A6 ECD2 F000      00225         CALL    PRINT
0002AA 0012           00226         RETURN
0002AC                00227 PRINT_f
0002AC 0E66           00228         MOVLW   'f'
0002AE ECD2 F000      00229         CALL    PRINT
0002B2 0012           00230         RETURN
0002B4                00231 PRINT_g
0002B4 0E67           00232         MOVLW   'g'
0002B6 ECD2 F000      00233         CALL    PRINT
0002BA 0012           00234         RETURN
0002BC                00235 PRINT_h
0002BC 0E68           00236         MOVLW   'h'
0002BE ECD2 F000      00237         CALL    PRINT
MPASM  5.41                        PRUEBA.ASM   11-27-2012  14:24:40         PAGE 10


LOC  OBJECT CODE     LINE SOURCE TEXT
  VALUE

0002C2 0012           00238         RETURN
0002C4                00239 PRINT_i
0002C4 0E69           00240         MOVLW   'i'
0002C6 ECD2 F000      00241         CALL    PRINT
0002CA 0012           00242         RETURN
0002CC                00243 PRINT_j
0002CC 0E6A           00244         MOVLW   'j'
0002CE ECD2 F000      00245         CALL    PRINT
0002D2 0012           00246         RETURN
0002D4                00247 PRINT_k
0002D4 0E6B           00248         MOVLW   'k'
0002D6 ECD2 F000      00249         CALL    PRINT
0002DA 0012           00250         RETURN
0002DC                00251 PRINT_l
0002DC 0E6C           00252         MOVLW   'l'
0002DE ECD2 F000      00253         CALL    PRINT
0002E2 0012           00254         RETURN
0002E4                00255 PRINT_m
0002E4 0E6D           00256         MOVLW   'm'
0002E6 ECD2 F000      00257         CALL    PRINT
0002EA 0012           00258         RETURN
0002EC                00259 PRINT_n
0002EC 0E6E           00260         MOVLW   'n'
0002EE ECD2 F000      00261         CALL    PRINT
0002F2 0012           00262         RETURN
0002F4                00263 PRINT_ñ
0002F4 0EF1           00264         MOVLW   'ñ'
0002F6 ECD2 F000      00265         CALL    PRINT
0002FA 0012           00266         RETURN
0002FC                00267 PRINT_o
0002FC 0E6F           00268         MOVLW   'o'
0002FE ECD2 F000      00269         CALL    PRINT
000302 0012           00270         RETURN
000304                00271 PRINT_p
000304 0E70           00272         MOVLW   'p'
000306 ECD2 F000      00273         CALL    PRINT
00030A 0012           00274         RETURN
00030C                00275 PRINT_q
00030C 0E71           00276         MOVLW   'q'
00030E ECD2 F000      00277         CALL    PRINT
000312 0012           00278         RETURN
000314                00279 PRINT_r
000314 0E72           00280         MOVLW   'r'
000316 ECD2 F000      00281         CALL    PRINT
00031A 0012           00282         RETURN
00031C                00283 PRINT_s
00031C 0E73           00284         MOVLW   's'
00031E ECD2 F000      00285         CALL    PRINT
000322 0012           00286         RETURN
000324                00287 PRINT_t
000324 0E74           00288         MOVLW   't'
000326 ECD2 F000      00289         CALL    PRINT
00032A 0012           00290         RETURN
MPASM  5.41                        PRUEBA.ASM   11-27-2012  14:24:40         PAGE 11


LOC  OBJECT CODE     LINE SOURCE TEXT
  VALUE

00032C                00291 PRINT_u
00032C 0E75           00292         MOVLW   'u'
00032E ECD2 F000      00293         CALL    PRINT
000332 0012           00294         RETURN
000334                00295 PRINT_v
000334 0E76           00296         MOVLW   'v'
000336 ECD2 F000      00297         CALL    PRINT
00033A 0012           00298         RETURN
00033C                00299 PRINT_w
00033C 0E77           00300         MOVLW   'w'
00033E ECD2 F000      00301         CALL    PRINT
000342 0012           00302         RETURN
000344                00303 PRINT_x
000344 0E78           00304         MOVLW   'x'
000346 ECD2 F000      00305         CALL    PRINT
00034A 0012           00306         RETURN
00034C                00307 PRINT_y
00034C 0E79           00308         MOVLW   'y'
00034E ECD2 F000      00309         CALL    PRINT
000352 0012           00310         RETURN
000354                00311 PRINT_z
000354 0E7A           00312         MOVLW   'z'
000356 ECD2 F000      00313         CALL    PRINT
00035A 0012           00314         RETURN
00035C                00315 PRINT_
00035C 0E20           00316         MOVLW   ' '
00035E ECD2 F000      00317         CALL    PRINT
000362 0012           00318         RETURN
000364                00319 PRINT_1
000364 0E31           00320         MOVLW   '1'
000366 ECD2 F000      00321         CALL    PRINT
00036A 0012           00322         RETURN
00036C                00323 PRINT_2
00036C 0E32           00324         MOVLW   '2'
00036E ECD2 F000      00325         CALL    PRINT
000372 0012           00326         RETURN
000374                00327 PRINT_3
000374 0E33           00328         MOVLW   '3'
000376 ECD2 F000      00329         CALL    PRINT
00037A 0012           00330         RETURN
00037C                00331 PRINT_4
00037C 0E34           00332         MOVLW   '4'
00037E ECD2 F000      00333         CALL    PRINT
000382 0012           00334         RETURN
000384                00335 PRINT_5
000384 0E35           00336         MOVLW   '5'
000386 ECD2 F000      00337         CALL    PRINT
00038A 0012           00338         RETURN
00038C                00339 PRINT_6
00038C 0E36           00340         MOVLW   '6'
00038E ECD2 F000      00341         CALL    PRINT
000392 0012           00342         RETURN
000394                00343 PRINT_7
MPASM  5.41                        PRUEBA.ASM   11-27-2012  14:24:40         PAGE 12


LOC  OBJECT CODE     LINE SOURCE TEXT
  VALUE

000394 0E37           00344         MOVLW   '7'
000396 ECD2 F000      00345         CALL    PRINT
00039A 0012           00346         RETURN
00039C                00347 PRINT_8
00039C 0E38           00348         MOVLW   '8'
00039E ECD2 F000      00349         CALL    PRINT
0003A2 0012           00350         RETURN
0003A4                00351 PRINT_9
0003A4 0E39           00352         MOVLW   '9'
0003A6 ECD2 F000      00353         CALL    PRINT
0003AA 0012           00354         RETURN
0003AC                00355 PRINT_0
0003AC 0E30           00356         MOVLW   '0'
0003AE ECD2 F000      00357         CALL    PRINT
0003B2 0012           00358         RETURN
                      00359 
                      00360 ;====================================================DATA_SEND==========================================
                            ========
                      00361 ;Rutina que envia los datos a travez del puero serial (SPI. Primero envia un 0 al E de la pantalla, carg
                            a el dato
                      00362 ;en que se quiere enviar "VALB". Luego manda el dato de "VALA" (E=0/1 y RS=0/1) y finalmente vulve a env
                            iar un 
                      00363 ;0 al E de la pantalla.
                      00364 ;=======================================================================================================
                            =======
                      00365 ;===========================================Deshabilita LCD E=0=========================================
                            =======
0003B4                00366 INSTRUCCION
0003B4 010F           00367         BANKSEL PORTA                           ;Cambia de banco
0003B6 9480           00368         BCF             LCD                                     ;Deshabilita el LCD
0003B8 010F           00369         BANKSEL SSP1BUF                         ;Cambia de banco
0003BA 969E           00370         BCF             PIR1,SSP1IF                     ;Limpia el Flag de transmicion de datos
0003BC 0E40           00371         MOVLW   b'01000000'                     ;Carga el OPCODE del MCP23S17 (Direccion =000)
0003BE 6EC9           00372         MOVWF   SSP1BUF                         ;Envia el dato que esta en W al Bufer del SPI
0003C0 EC37 F002      00373         CALL    CHEK                            ;Llama a la rutina CHEK que verifica si ya se envio el d
                            ato
0003C4 010F           00374         BANKSEL PIR1                            ;Cambia de banco
0003C6 969E           00375         BCF             PIR1,SSP1IF                     ;Limpia el Flag de transmicion de datos
0003C8 0E12           00376         MOVLW   0X12                            ;Carga la direccion del puero A del MCP23S17
0003CA 6EC9           00377         MOVWF   SSP1BUF                         ;Envia el dato que esta en W al Bufer del SPI
0003CC EC37 F002      00378         CALL    CHEK                            ;Llama a la rutina CHEK que verifica si ya se envio el d
                            ato
0003D0 010F           00379         BANKSEL PIR1                            ;Cambia de banco
0003D2 969E           00380         BCF             PIR1,SSP1IF                     ;Limpia el Flag de transmicion de datos
0003D4 0E3F           00381         MOVLW   B'00111111'                     ;RS=0 Y E=0
0003D6 6EC9           00382         MOVWF   SSP1BUF                         ;Envia el dato que esta en W al Bufer del SPI
0003D8 EC37 F002      00383         CALL    CHEK                            ;Llama a la rutina CHEK que verifica si ya se envio el d
                            ato
0003DC 010F           00384         BANKSEL PORTA                           ;Cambia de banco
0003DE 8480           00385         BSF             LCD                                     ;Habilita el LCD
                      00386 ;=====================================IMPRIME DATO B============================================
0003E0 010F           00387         BANKSEL PORTA                           ;Cambia de banco
0003E2 9480           00388         BCF             LCD                                     ;Deshabilita el LCD
MPASM  5.41                        PRUEBA.ASM   11-27-2012  14:24:40         PAGE 13


LOC  OBJECT CODE     LINE SOURCE TEXT
  VALUE

0003E4 010F           00389         BANKSEL SSP1BUF                         ;Cambia de banco
0003E6 969E           00390         BCF             PIR1,SSP1IF                     ;Limpia el Flag de transmicion de datos
0003E8 0E40           00391         MOVLW   b'01000000'                     ;Carga el OPCODE del MCP23S17 (Direccion =000)
0003EA 6EC9           00392         MOVWF   SSP1BUF                         ;Envia el dato que esta en W al Bufer del SPI
0003EC EC37 F002      00393         CALL    CHEK                            ;Llama a la rutina CHEK que verifica si ya se envio el d
                            ato
0003F0 010F           00394         BANKSEL PIR1                            ;Cambia de banco
0003F2 969E           00395         BCF             PIR1,SSP1IF                     ;Limpia el Flag de transmicion de datos
0003F4 0E13           00396         MOVLW   0X13                            ;Carga la direccion del puero B del MCP23S17
0003F6 6EC9           00397         MOVWF   SSP1BUF                         ;Envia el dato que esta en W al Bufer del SPI
0003F8 EC37 F002      00398         CALL    CHEK                            ;Llama a la rutina CHEK que verifica si ya se envio el d
                            ato
0003FC 010F           00399         BANKSEL PIR1                            ;Cambia de banco
0003FE 969E           00400         BCF             PIR1,SSP1IF                     ;Limpia el Flag de transmicion de datos
000400 0100           00401         BANKSEL VALB                            ;Cambia de banco
000402 5001           00402         MOVF    VALB,W                          ;Carga el contenido de VALB a W para ser enviado por el 
                            SPI
000404 010F           00403         BANKSEL PIR1                            ;Cambia de banco
000406 6EC9           00404         MOVWF   SSP1BUF                         ;Envia el dato que esta en W al Bufer del SPI
000408 EC37 F002      00405         CALL    CHEK                            ;Llama a la rutina CHEK que verifica si ya se envio el d
                            ato
00040C 010F           00406         BANKSEL PORTA                           ;Cambia de banco
00040E 8480           00407         BSF             LCD                                     ;Habilita el LCD
                      00408 ;=========================================IMPRIME DATO A (RS Y E)=======================================
                            ========
000410 010F           00409         BANKSEL PORTA                           ;Cambia de banco
000412 9480           00410         BCF             LCD                                     ;Deshabilita el LCD
000414 010F           00411         BANKSEL SSP1BUF                         ;Cambia de banco
000416 969E           00412         BCF             PIR1,SSP1IF                     ;Limpia el Flag de transmicion de datos
000418 0E40           00413         MOVLW   b'01000000'                     ;Carga el OPCODE del MCP23S17 (Direccion =000)
00041A 6EC9           00414         MOVWF   SSP1BUF                         ;Envia el dato que esta en W al Bufer del SPI
00041C EC37 F002      00415         CALL    CHEK                            ;Llama a la rutina CHEK que verifica si ya se envio el d
                            ato
000420 010F           00416         BANKSEL PIR1                            ;Cambia de banco
000422 969E           00417         BCF             PIR1,SSP1IF                     ;Limpia el Flag de transmicion de datos
000424 0E12           00418         MOVLW   0X12                            ;Carga la direccion del puero A del MCP23S17
000426 6EC9           00419         MOVWF   SSP1BUF                         ;Envia el dato que esta en W al Bufer del SPI
000428 EC37 F002      00420         CALL    CHEK                            ;Llama a la rutina CHEK que verifica si ya se envio el d
                            ato
00042C 010F           00421         BANKSEL PIR1                            ;Cambia de banco
00042E 969E           00422         BCF             PIR1,SSP1IF                     ;Limpia el Flag de transmicion de datos
000430 0100           00423         BANKSEL VALB                            ;Cambia de banco
000432 5000           00424         MOVF    VALA,W                          ;Carga el contenido de VALA a W para ser enviado por el 
                            SPI
000434 010F           00425         BANKSEL PIR1                            ;Cambia de banco
000436 6EC9           00426         MOVWF   SSP1BUF                         ;Envia el dato que esta en W al Bufer del SPI
000438 EC37 F002      00427         CALL    CHEK                            ;Llama a la rutina CHEK que verifica si ya se envio el d
                            ato
00043C 010F           00428         BANKSEL PORTA                           ;Cambia de banco
00043E 8480           00429         BSF             LCD                                     ;Habilita el LCD
                      00430 ;===========================================Deshabilita LCD E=0=========================================
                            =======
000440 010F           00431         BANKSEL PORTA                           ;Cambia de banco
MPASM  5.41                        PRUEBA.ASM   11-27-2012  14:24:40         PAGE 14


LOC  OBJECT CODE     LINE SOURCE TEXT
  VALUE

000442 9480           00432         BCF             LCD                                     ;Deshabilita el LCD
000444 010F           00433         BANKSEL SSP1BUF                         ;Cambia de banco
000446 969E           00434         BCF             PIR1,SSP1IF                     ;Limpia el Flag de transmicion de datos
000448 0E40           00435         MOVLW   b'01000000'                     ;Carga el OPCODE del MCP23S17 (Direccion =000)
00044A 6EC9           00436         MOVWF   SSP1BUF                         ;Envia el dato que esta en W al Bufer del SPI
00044C EC37 F002      00437         CALL    CHEK                            ;Llama a la rutina CHEK que verifica si ya se envio el d
                            ato
000450 010F           00438         BANKSEL PIR1                            ;Cambia de banco
000452 969E           00439         BCF             PIR1,SSP1IF                     ;Limpia el Flag de transmicion de datos
000454 0E12           00440         MOVLW   0X12                            ;Carga la direccion del puero A del MCP23S17
000456 6EC9           00441         MOVWF   SSP1BUF                         ;Envia el dato que esta en W al Bufer del SPI
000458 EC37 F002      00442         CALL    CHEK                            ;Llama a la rutina CHEK que verifica si ya se envio el d
                            ato
00045C 010F           00443         BANKSEL PIR1                            ;Cambia de banco
00045E 969E           00444         BCF             PIR1,SSP1IF                     ;Limpia el Flag de transmicion de datos
000460 0E3F           00445         MOVLW   B'00111111'                     ;RS=0 Y E=0
000462 6EC9           00446         MOVWF   SSP1BUF                         ;Envia el dato que esta en W al Bufer del SPI
000464 EC37 F002      00447         CALL    CHEK                            ;Llama a la rutina CHEK que verifica si ya se envio el d
                            ato
000468 010F           00448         BANKSEL PORTA                           ;Cambia de banco
00046A 8480           00449         BSF             LCD                                     ;Habilita el LCD
00046C 0012           00450         RETURN                                          ;Retorna a la siguiente linea del CALL que llamo
                             a la rutina
                      00451 ;===================================================CHEQUEO_SPI=========================================
                            =====
00046E                00452 CHEK
00046E A69E           00453         BTFSS   PIR1,SSP1IF                     ;Revisa si el Flag de transmicion de datos esta encendid
                            o
000470 EF37 F002      00454         GOTO    $-2                                     ;No, vuelve a preguntar
000474 969E           00455         BCF             PIR1,SSP1IF                     ;Si, Limpia el Flag de transmicion de datos
000476 50C9           00456         MOVF    SSP1BUF,w                       ;Mueve a W lo que esta en bufer del SPI (SSP1BUF)
000478 0012           00457         RETURN                                          ;Retorna a la siguiente linea del CALL que llamo
                             a la rutina
                      00183                         END
MPASM  5.41                        PRUEBA.ASM   11-27-2012  14:24:40         PAGE 15


SYMBOL TABLE
  LABEL                             VALUE 

A                                 00000000
A16                               00000000
A17                               00000001
A18                               00000002
A19                               00000003
ABDEN                             00000000
ABDOVF                            00000007
ACCESS                            00000000
ACKDT                             00000005
ACKEN                             00000004
ACKSTAT                           00000006
ACQT0                             00000003
ACQT1                             00000004
ACQT2                             00000005
AD0                               00000000
AD1                               00000001
AD10                              00000002
AD11                              00000003
AD12                              00000004
AD13                              00000005
AD14                              00000006
AD15                              00000007
AD2                               00000002
AD3                               00000003
AD4                               00000004
AD5                               00000005
AD6                               00000006
AD7                               00000007
AD8                               00000000
AD9                               00000001
ADCON0                            00000FC2
ADCON1                            00000FC1
ADCON2                            00000FC0
ADCS0                             00000000
ADCS1                             00000001
ADCS2                             00000002
ADDEN                             00000003
ADDEN1                            00000003
ADDEN2                            00000003
ADFM                              00000007
ADIE                              00000006
ADIF                              00000006
ADIP                              00000006
ADON                              00000000
ADRES                             00000FC3
ADRESH                            00000FC4
ADRESL                            00000FC3
ALE                               00000000
AN0                               00000000
AN1                               00000001
AN10                              00000005
AN11                              00000006
AN12                              00000004
MPASM  5.41                        PRUEBA.ASM   11-27-2012  14:24:40         PAGE 16


SYMBOL TABLE
  LABEL                             VALUE 

AN13                              00000005
AN14                              00000006
AN15                              00000007
AN2                               00000002
AN3                               00000003
AN4                               00000005
AN5                               00000000
AN6                               00000001
AN7                               00000002
AN8                               00000003
AN9                               00000004
BA0                               00000004
BANKED                            00000001
BAUDCON                           00000F7E
BAUDCON1                          00000F7E
BAUDCON2                          00000F7C
BCL1IE                            00000003
BCL1IF                            00000003
BCL1IP                            00000003
BCL2IE                            00000006
BCL2IF                            00000006
BCL2IP                            00000006
BCLIE                             00000003
BCLIF                             00000003
BCLIP                             00000003
BF                                00000000
BGST                              00000005
BOR                               00000000
BRG16                             00000003
BRGH                              00000002
BRGH1                             00000002
BRGH2                             00000002
BSR                               00000FE0
C                                 00000000
C1INV                             00000004
C1OUT_CMCON                       00000006
C1OUT_PORTF                       00000002
C2INV                             00000005
C2OUT_CMCON                       00000007
C2OUT_PORTF                       00000001
CCP1                              00000002
CCP1CON                           00000FBD
CCP1IE                            00000002
CCP1IF                            00000002
CCP1IP                            00000002
CCP1M0                            00000000
CCP1M1                            00000001
CCP1M2                            00000002
CCP1M3                            00000003
CCP1X                             00000005
CCP1Y                             00000004
CCP2CON                           00000FBA
CCP2IE                            00000000
MPASM  5.41                        PRUEBA.ASM   11-27-2012  14:24:40         PAGE 17


SYMBOL TABLE
  LABEL                             VALUE 

CCP2IF                            00000000
CCP2IP                            00000000
CCP2M0                            00000000
CCP2M1                            00000001
CCP2M2                            00000002
CCP2M3                            00000003
CCP2X                             00000005
CCP2Y                             00000004
CCP2_PORTB                        00000003
CCP2_PORTC                        00000001
CCP2_PORTE                        00000007
CCP3                              00000000
CCP3CON                           00000FB7
CCP3IE                            00000000
CCP3IF                            00000000
CCP3IP                            00000000
CCP3M0                            00000000
CCP3M1                            00000001
CCP3M2                            00000002
CCP3M3                            00000003
CCP3X                             00000005
CCP3Y                             00000004
CCP4                              00000003
CCP4CON                           00000F73
CCP4IE                            00000001
CCP4IF                            00000001
CCP4IP                            00000001
CCP4M0                            00000000
CCP4M1                            00000001
CCP4M2                            00000002
CCP4M3                            00000003
CCP5                              00000004
CCP5CON                           00000F70
CCP5IE                            00000002
CCP5IF                            00000002
CCP5IP                            00000002
CCP5M0                            00000000
CCP5M1                            00000001
CCP5M2                            00000002
CCP5M3                            00000003
CCPR1                             00000FBE
CCPR1H                            00000FBF
CCPR1L                            00000FBE
CCPR2                             00000FBB
CCPR2H                            00000FBC
CCPR2L                            00000FBB
CCPR3                             00000FB8
CCPR3H                            00000FB9
CCPR3L                            00000FB8
CCPR4                             00000F74
CCPR4H                            00000F75
CCPR4L                            00000F74
CCPR5                             00000F71
MPASM  5.41                        PRUEBA.ASM   11-27-2012  14:24:40         PAGE 18


SYMBOL TABLE
  LABEL                             VALUE 

CCPR5H                            00000F72
CCPR5L                            00000F71
CE                                00000005
CFGS                              00000006
CHEK                              0000046E
CHS0                              00000002
CHS1                              00000003
CHS2                              00000004
CHS3                              00000005
CIS                               00000003
CK                                00000006
CK1                               00000006
CK2                               00000001
CKE                               00000006
CKP                               00000004
CLEAR                             00000032
CM0                               00000000
CM1                               00000001
CM2                               00000002
CMCON                             00000FB4
CMIE                              00000006
CMIF                              00000006
CMIP                              00000006
CONF                              00000042
CONFIG_SPI                        00000134
CONT                              00000021
CONT2                             00000022
CREN                              00000004
CREN1                             00000004
CREN2                             00000004
CS                                00000002
CSRC                              00000007
CSRC1                             00000007
CSRC2                             00000007
CVR0                              00000000
CVR1                              00000001
CVR2                              00000002
CVR3                              00000003
CVRCON                            00000FB5
CVREF                             00000005
CVREN                             00000007
CVROE                             00000006
CVRR                              00000005
CVRSS                             00000004
D                                 00000005
DATA_ADDRESS                      00000005
DATO                              00000025
DC                                00000001
DC1B0                             00000004
DC1B1                             00000005
DC2B0                             00000004
DC2B1                             00000005
DC3B0                             00000004
MPASM  5.41                        PRUEBA.ASM   11-27-2012  14:24:40         PAGE 19


SYMBOL TABLE
  LABEL                             VALUE 

DC3B1                             00000005
DC4B0                             00000004
DC4B1                             00000005
DC5B0                             00000004
DC5B1                             00000005
DCCP4X                            00000005
DCCP4Y                            00000004
DCCP5X                            00000005
DCCP5Y                            00000004
DDRA                              TRISA
DDRB                              TRISB
DDRC                              TRISC
DDRD                              TRISD
DDRE                              TRISE
DDRF                              00000F97
DDRG                              00000F98
DDRH                              00000F99
DDRJ                              00000F9A
DELAY                             000000AA
DONE                              00000001
DT1                               00000007
DT2                               00000002
D_A                               00000005
D_NOT_A                           00000005
EBDIS                             00000007
ECCP1                             00000002
ECCP1AS                           00000FB6
ECCP1AS0                          00000004
ECCP1AS1                          00000005
ECCP1AS2                          00000006
ECCP1ASE                          00000007
ECCP1CON                          00000FBD
ECCP1DEL                          00000F79
ECCP2AS                           00000F68
ECCP2AS0                          00000004
ECCP2AS1                          00000005
ECCP2AS2                          00000006
ECCP2ASE                          00000007
ECCP2CON                          00000FBA
ECCP2DEL                          00000F67
ECCP2_PORTB                       00000003
ECCP2_PORTC                       00000001
ECCP2_PORTE                       00000007
ECCP3                             00000000
ECCP3AS                           00000F6A
ECCP3AS0                          00000004
ECCP3AS1                          00000005
ECCP3AS2                          00000006
ECCP3ASE                          00000007
ECCP3CON                          00000FB7
ECCP3DEL                          00000F69
ECCPAS0                           00000004
ECCPAS1                           00000005
MPASM  5.41                        PRUEBA.ASM   11-27-2012  14:24:40         PAGE 20


SYMBOL TABLE
  LABEL                             VALUE 

ECCPAS2                           00000006
ECCPASE                           00000007
EEADR                             00000FA9
EEADRH                            00000FAA
EECON1                            00000FA6
EECON2                            00000FA7
EEDATA                            00000FA8
EEIE                              00000004
EEIF                              00000004
EEIP                              00000004
EEPGD                             00000007
ESCRIBIR                          000000C0
ESCRIBIR_OFF                      00000114
ESCRIBIR_ON                       000000FA
FAST                              00000001
FERR                              00000002
FERR1                             00000002
FERR2                             00000002
FLT0                              00000000
FLTS                              00000002
FREE                              00000004
FSR0                              00000000
FSR0H                             00000FEA
FSR0L                             00000FE9
FSR1                              00000001
FSR1H                             00000FE2
FSR1L                             00000FE1
FSR2                              00000002
FSR2H                             00000FDA
FSR2L                             00000FD9
GCEN                              00000007
GIE                               00000007
GIEH                              00000007
GIEL                              00000006
GIE_GIEH                          00000007
GO                                00000001
GO_DONE                           00000001
GO_NOT_DONE                       00000001
HLVDCON                           00000FD2
HLVDEN                            00000004
HLVDIE                            00000002
HLVDIF                            00000002
HLVDIN                            00000005
HLVDIP                            00000002
HLVDL0                            00000000
HLVDL1                            00000001
HLVDL2                            00000002
HLVDL3                            00000003
I2C_DAT                           00000005
I2C_READ                          00000002
I2C_START                         00000003
I2C_STOP                          00000004
IBF                               00000007
MPASM  5.41                        PRUEBA.ASM   11-27-2012  14:24:40         PAGE 21


SYMBOL TABLE
  LABEL                             VALUE 

IBOV                              00000005
IDLEN                             00000007
INDF0                             00000FEF
INDF1                             00000FE7
INDF2                             00000FDF
INI_LCD                           0000017E
INSTRUCCION                       000003B4
INT0                              00000000
INT0E                             00000004
INT0F                             00000001
INT0IE                            00000004
INT0IF                            00000001
INT1                              00000001
INT1E                             00000003
INT1F                             00000000
INT1IE                            00000003
INT1IF                            00000000
INT1IP                            00000006
INT1P                             00000006
INT2                              00000002
INT2E                             00000004
INT2F                             00000001
INT2IE                            00000004
INT2IF                            00000001
INT2IP                            00000007
INT2P                             00000007
INT3                              00000003
INT3E                             00000005
INT3F                             00000002
INT3IE                            00000005
INT3IF                            00000002
INT3IP                            00000001
INT3P                             00000001
INTCON                            00000FF2
INTCON2                           00000FF1
INTCON3                           00000FF0
INTEDG0                           00000006
INTEDG1                           00000005
INTEDG2                           00000004
INTEDG3                           00000003
INTSRC                            00000007
INT_CALL                          00000008
INT_END                           00000030
IOFS                              00000002
IPEN                              00000007
IPR1                              00000F9F
IPR2                              00000FA2
IPR3                              00000FA5
IRCF0                             00000004
IRCF1                             00000005
IRCF2                             00000006
IRVST                             00000005
IVRST                             00000005
MPASM  5.41                        PRUEBA.ASM   11-27-2012  14:24:40         PAGE 22


SYMBOL TABLE
  LABEL                             VALUE 

KBI0                              00000004
KBI1                              00000005
KBI2                              00000006
KBI3                              00000007
LATA                              00000F89
LATA0                             00000000
LATA1                             00000001
LATA2                             00000002
LATA3                             00000003
LATA4                             00000004
LATA5                             00000005
LATA6                             00000006
LATA7                             00000007
LATB                              00000F8A
LATB0                             00000000
LATB1                             00000001
LATB2                             00000002
LATB3                             00000003
LATB4                             00000004
LATB5                             00000005
LATB6                             00000006
LATB7                             00000007
LATC                              00000F8B
LATC0                             00000000
LATC1                             00000001
LATC2                             00000002
LATC3                             00000003
LATC4                             00000004
LATC5                             00000005
LATC6                             00000006
LATC7                             00000007
LATD                              00000F8C
LATD0                             00000000
LATD1                             00000001
LATD2                             00000002
LATD3                             00000003
LATD4                             00000004
LATD5                             00000005
LATD6                             00000006
LATD7                             00000007
LATE                              00000F8D
LATE0                             00000000
LATE1                             00000001
LATE2                             00000002
LATE3                             00000003
LATE4                             00000004
LATE5                             00000005
LATE6                             00000006
LATE7                             00000007
LATF                              00000F8E
LATF0                             00000000
LATF1                             00000001
LATF2                             00000002
MPASM  5.41                        PRUEBA.ASM   11-27-2012  14:24:40         PAGE 23


SYMBOL TABLE
  LABEL                             VALUE 

LATF3                             00000003
LATF4                             00000004
LATF5                             00000005
LATF6                             00000006
LATF7                             00000007
LATG                              00000F8F
LATG0                             00000000
LATG1                             00000001
LATG2                             00000002
LATG3                             00000003
LATG4                             00000004
LATG5                             00000005
LATH                              00000F90
LATH0                             00000000
LATH1                             00000001
LATH2                             00000002
LATH3                             00000003
LATH4                             00000004
LATH5                             00000005
LATH6                             00000006
LATH7                             00000007
LATJ                              00000F91
LATJ0                             00000000
LATJ1                             00000001
LATJ2                             00000002
LATJ3                             00000003
LATJ4                             00000004
LATJ5                             00000005
LATJ6                             00000006
LATJ7                             00000007
LB                                00000006
LCD                               PORTA,2
LCD_EN                            VALA,6
LCD_RS                            VALA,7
LEER                              000000E6
LVDCON                            00000FD2
LVDEN                             00000004
LVDIE                             00000002
LVDIF                             00000002
LVDIN                             00000005
LVDIP                             00000002
LVDL0                             00000000
LVDL1                             00000001
LVDL2                             00000002
LVDL3                             00000003
LVV0                              00000000
LVV1                              00000001
LVV2                              00000002
LVV3                              00000003
MAIN                              0000009A
MCLR                              00000005
MEMCON                            00000F9C
N                                 00000004
MPASM  5.41                        PRUEBA.ASM   11-27-2012  14:24:40         PAGE 24


SYMBOL TABLE
  LABEL                             VALUE 

NOT_A                             00000005
NOT_ADDRESS                       00000005
NOT_BOR                           00000000
NOT_CE                            00000005
NOT_CS                            00000002
NOT_DONE                          00000001
NOT_LB                            00000006
NOT_MCLR                          00000005
NOT_OE                            00000001
NOT_PD                            00000002
NOT_POR                           00000001
NOT_RBPU                          00000007
NOT_RC8                           00000006
NOT_RD                            00000000
NOT_RI                            00000004
NOT_SS1                           00000007
NOT_SS2                           00000007
NOT_T1SYNC                        00000002
NOT_T3SYNC                        00000002
NOT_TO                            00000003
NOT_TX8                           00000006
NOT_UB                            00000007
NOT_W                             00000002
NOT_WR                            00000001
NOT_WRH                           00000003
NOT_WRITE                         00000002
NOT_WRL                           00000002
OBF                               00000006
OE                                00000001
OERR                              00000001
OERR1                             00000001
OERR2                             00000001
OSCCON                            00000FD3
OSCFIE                            00000007
OSCFIF                            00000007
OSCFIP                            00000007
OSCTUNE                           00000F9B
OSTS                              00000003
OV                                00000003
P                                 00000004
P1A                               00000002
P1B_PORTE                         00000006
P1B_PORTH                         00000007
P1C_PORTE                         00000005
P1C_PORTH                         00000006
P1D                               00000004
P1DC0                             00000000
P1DC1                             00000001
P1DC2                             00000002
P1DC3                             00000003
P1DC4                             00000004
P1DC5                             00000005
P1DC6                             00000006
MPASM  5.41                        PRUEBA.ASM   11-27-2012  14:24:40         PAGE 25


SYMBOL TABLE
  LABEL                             VALUE 

P1M0                              00000006
P1M1                              00000007
P1RSEN                            00000007
P2A_PORTB                         00000003
P2A_PORTC                         00000001
P2A_PORTE                         00000007
P2B                               00000002
P2C                               00000001
P2D                               00000000
P2DC0                             00000000
P2DC1                             00000001
P2DC2                             00000002
P2DC3                             00000003
P2DC4                             00000004
P2DC5                             00000005
P2DC6                             00000006
P2M0                              00000006
P2M1                              00000007
P2RSEN                            00000007
P3A                               00000000
P3B_PORTE                         00000004
P3B_PORTH                         00000005
P3C_PORTE                         00000003
P3C_PORTH                         00000004
P3D                               00000003
P3DC0                             00000000
P3DC1                             00000001
P3DC2                             00000002
P3DC3                             00000003
P3DC4                             00000004
P3DC5                             00000005
P3DC6                             00000006
P3M0                              00000006
P3M1                              00000007
P3RSEN                            00000007
PC                                00000FF9
PCFG0                             00000000
PCFG1                             00000001
PCFG2                             00000002
PCFG3                             00000003
PCL                               00000FF9
PCLATH                            00000FFA
PCLATU                            00000FFB
PD                                00000002
PDC0                              00000000
PDC1                              00000001
PDC2                              00000002
PDC3                              00000003
PDC4                              00000004
PDC5                              00000005
PDC6                              00000006
PEIE                              00000006
PEIE_GIEL                         00000006
MPASM  5.41                        PRUEBA.ASM   11-27-2012  14:24:40         PAGE 26


SYMBOL TABLE
  LABEL                             VALUE 

PEN                               00000002
PIE1                              00000F9D
PIE2                              00000FA0
PIE3                              00000FA3
PIR1                              00000F9E
PIR2                              00000FA1
PIR3                              00000FA4
PLLEN                             00000006
PLUSW0                            00000FEB
PLUSW1                            00000FE3
PLUSW2                            00000FDB
POR                               00000001
PORTA                             00000F80
PORTB                             00000F81
PORTC                             00000F82
PORTD                             00000F83
PORTE                             00000F84
PORTF                             00000F85
PORTG                             00000F86
PORTH                             00000F87
PORTJ                             00000F88
POSTDEC0                          00000FED
POSTDEC1                          00000FE5
POSTDEC2                          00000FDD
POSTINC0                          00000FEE
POSTINC1                          00000FE6
POSTINC2                          00000FDE
PR2                               00000FCB
PR4                               00000F77
PREINC0                           00000FEC
PREINC1                           00000FE4
PREINC2                           00000FDC
PRINT                             000001A4
PRINT_                            0000035C
PRINT_0                           000003AC
PRINT_1                           00000364
PRINT_2                           0000036C
PRINT_3                           00000374
PRINT_4                           0000037C
PRINT_5                           00000384
PRINT_6                           0000038C
PRINT_7                           00000394
PRINT_8                           0000039C
PRINT_9                           000003A4
PRINT_A                           000001AC
PRINT_B                           000001B4
PRINT_C                           000001BC
PRINT_D                           000001C4
PRINT_E                           000001CC
PRINT_F                           000001D4
PRINT_G                           000001DC
PRINT_H                           000001E4
PRINT_I                           000001EC
MPASM  5.41                        PRUEBA.ASM   11-27-2012  14:24:40         PAGE 27


SYMBOL TABLE
  LABEL                             VALUE 

PRINT_J                           000001F4
PRINT_K                           000001FC
PRINT_L                           00000204
PRINT_M                           0000020C
PRINT_N                           00000214
PRINT_O                           00000224
PRINT_P                           0000022C
PRINT_Q                           00000234
PRINT_R                           0000023C
PRINT_S                           00000244
PRINT_T                           0000024C
PRINT_U                           00000254
PRINT_V                           0000025C
PRINT_W                           00000264
PRINT_X                           0000026C
PRINT_Y                           00000274
PRINT_Z                           0000027C
PRINT_a                           00000284
PRINT_b                           0000028C
PRINT_c                           00000294
PRINT_d                           0000029C
PRINT_e                           000002A4
PRINT_f                           000002AC
PRINT_g                           000002B4
PRINT_h                           000002BC
PRINT_i                           000002C4
PRINT_j                           000002CC
PRINT_k                           000002D4
PRINT_l                           000002DC
PRINT_m                           000002E4
PRINT_n                           000002EC
PRINT_o                           000002FC
PRINT_p                           00000304
PRINT_q                           0000030C
PRINT_r                           00000314
PRINT_s                           0000031C
PRINT_t                           00000324
PRINT_u                           0000032C
PRINT_v                           00000334
PRINT_w                           0000033C
PRINT_x                           00000344
PRINT_y                           0000034C
PRINT_z                           00000354
PRINT_Ñ                           0000021C
PRINT_ñ                           000002F4
PROD                              00000FF3
PRODH                             00000FF4
PRODL                             00000FF3
PRSEN                             00000007
PSA                               00000003
PSP0                              00000000
PSP1                              00000001
PSP2                              00000002
MPASM  5.41                        PRUEBA.ASM   11-27-2012  14:24:40         PAGE 28


SYMBOL TABLE
  LABEL                             VALUE 

PSP3                              00000003
PSP4                              00000004
PSP5                              00000005
PSP6                              00000006
PSP7                              00000007
PSPCON                            00000FB0
PSPIE                             00000007
PSPIF                             00000007
PSPIP                             00000007
PSPMODE                           00000004
PSS1AC0                           00000002
PSS1AC1                           00000003
PSS1BD0                           00000000
PSS1BD1                           00000001
PSS2AC0                           00000002
PSS2AC1                           00000003
PSS2BD0                           00000000
PSS2BD1                           00000001
PSS3AC0                           00000002
PSS3AC1                           00000003
PSS3BD0                           00000000
PSS3BD1                           00000001
PSSAC0                            00000002
PSSAC1                            00000003
PSSBD0                            00000000
PSSBD1                            00000001
R                                 00000002
RA0                               00000000
RA1                               00000001
RA2                               00000002
RA3                               00000003
RA4                               00000004
RA5                               00000005
RA6                               00000006
RA7                               00000007
RB0                               00000000
RB1                               00000001
RB2                               00000002
RB3                               00000003
RB4                               00000004
RB5                               00000005
RB6                               00000006
RB7                               00000007
RBIE                              00000003
RBIF                              00000000
RBIP                              00000000
RBPU                              00000007
RC0                               00000000
RC1                               00000001
RC1IE                             00000005
RC1IF                             00000005
RC1IP                             00000005
RC2                               00000002
MPASM  5.41                        PRUEBA.ASM   11-27-2012  14:24:40         PAGE 29


SYMBOL TABLE
  LABEL                             VALUE 

RC2IE                             00000005
RC2IF                             00000005
RC2IP                             00000005
RC3                               00000003
RC4                               00000004
RC5                               00000005
RC6                               00000006
RC7                               00000007
RC8_9                             00000006
RC9                               00000006
RCD8                              00000000
RCEN                              00000003
RCIDL                             00000006
RCIE                              00000005
RCIF                              00000005
RCIP                              00000005
RCMT                              00000006
RCON                              00000FD0
RCREG                             00000FAE
RCREG1                            00000FAE
RCREG2                            00000F6E
RCSTA                             00000FAB
RCSTA1                            00000FAB
RCSTA2                            00000F6B
RD                                00000000
RD0                               00000000
RD1                               00000001
RD16                              00000007
RD2                               00000002
RD3                               00000003
RD4                               00000004
RD5                               00000005
RD6                               00000006
RD7                               00000007
RE0                               00000000
RE1                               00000001
RE2                               00000002
RE3                               00000003
RE4                               00000004
RE5                               00000005
RE6                               00000006
RE7                               00000007
READ_WRITE                        00000002
RF0                               00000000
RF1                               00000001
RF2                               00000002
RF3                               00000003
RF4                               00000004
RF5                               00000005
RF6                               00000006
RF7                               00000007
RG0                               00000000
RG1                               00000001
MPASM  5.41                        PRUEBA.ASM   11-27-2012  14:24:40         PAGE 30


SYMBOL TABLE
  LABEL                             VALUE 

RG2                               00000002
RG3                               00000003
RG4                               00000004
RG5                               00000005
RH0                               00000000
RH1                               00000001
RH2                               00000002
RH3                               00000003
RH4                               00000004
RH5                               00000005
RH6                               00000006
RH7                               00000007
RI                                00000004
RJ0                               00000000
RJ1                               00000001
RJ2                               00000002
RJ3                               00000003
RJ4                               00000004
RJ5                               00000005
RJ6                               00000006
RJ7                               00000007
RSEN                              00000001
RST_LCD                           PORTF,6
RX                                00000007
RX1                               00000007
RX2                               00000002
RX9                               00000006
RX91                              00000006
RX92                              00000006
RX9D                              00000000
RX9D1                             00000000
RX9D2                             00000000
R_NOT_W                           00000002
R_W                               00000002
S                                 00000003
SBOREN                            00000006
SCK                               00000003
SCK1                              00000003
SCK2                              00000006
SCKP                              00000004
SCL                               00000003
SCL1                              00000003
SCL2                              00000006
SCS0                              00000000
SCS1                              00000001
SDA                               00000004
SDA1                              00000004
SDA2                              00000005
SDI                               00000004
SDI1                              00000004
SDI2                              00000005
SDO                               00000005
SDO1                              00000005
MPASM  5.41                        PRUEBA.ASM   11-27-2012  14:24:40         PAGE 31


SYMBOL TABLE
  LABEL                             VALUE 

SDO2                              00000004
SEN                               00000000
SENDB                             00000003
SENDB1                            00000003
SENDB2                            00000003
SMP                               00000007
SP0                               00000000
SP1                               00000001
SP2                               00000002
SP3                               00000003
SP4                               00000004
SPBRG                             00000FAF
SPBRG1                            00000FAF
SPBRG2                            00000F6F
SPBRGH                            00000F7F
SPBRGH1                           00000F7F
SPBRGH2                           00000F7D
SPEN                              00000007
SPEN1                             00000007
SPEN2                             00000007
SREN                              00000005
SREN1                             00000005
SREN2                             00000005
SS1                               00000007
SS2                               00000007
SSP1ADD                           00000FC8
SSP1BUF                           00000FC9
SSP1CON1                          00000FC6
SSP1CON2                          00000FC5
SSP1IE                            00000003
SSP1IF                            00000003
SSP1IP                            00000003
SSP1STAT                          00000FC7
SSP2ADD                           00000F65
SSP2BUF                           00000F66
SSP2CON1                          00000F63
SSP2CON2                          00000F62
SSP2IE                            00000007
SSP2IF                            00000007
SSP2IP                            00000007
SSP2STAT                          00000F64
SSPADD                            00000FC8
SSPBUF                            00000FC9
SSPCON1                           00000FC6
SSPCON2                           00000FC5
SSPEN                             00000005
SSPIE                             00000003
SSPIF                             00000003
SSPIP                             00000003
SSPM0                             00000000
SSPM1                             00000001
SSPM2                             00000002
SSPM3                             00000003
MPASM  5.41                        PRUEBA.ASM   11-27-2012  14:24:40         PAGE 32


SYMBOL TABLE
  LABEL                             VALUE 

SSPOV                             00000006
SSPSTAT                           00000FC7
STATE                             00000024
STATUS                            00000FD8
STKFUL                            00000007
STKOVF                            00000007
STKPTR                            00000FFC
STKPTR0                           00000000
STKPTR1                           00000001
STKPTR2                           00000002
STKPTR3                           00000003
STKPTR4                           00000004
STKUNF                            00000006
SWDTE                             00000000
SWDTEN                            00000000
SYNC                              00000004
SYNC1                             00000004
SYNC2                             00000004
T08BIT                            00000006
T0CKI                             00000004
T0CON                             00000FD5
T0CS                              00000005
T0IE                              00000005
T0IF                              00000002
T0IP                              00000002
T0PS0                             00000000
T0PS1                             00000001
T0PS2                             00000002
T0PS3                             00000003
T0SE                              00000004
T13CKI                            00000000
T1CKPS0                           00000004
T1CKPS1                           00000005
T1CON                             00000FCD
T1INSYNC                          00000002
T1OSCEN                           00000003
T1OSI                             00000001
T1OSO                             00000000
T1RUN                             00000006
T1SYNC                            00000002
T2CKPS0                           00000000
T2CKPS1                           00000001
T2CON                             00000FCA
T2OUTPS0                          00000003
T2OUTPS1                          00000004
T2OUTPS2                          00000005
T2OUTPS3                          00000006
T3CCP1                            00000003
T3CCP2                            00000006
T3CKPS0                           00000004
T3CKPS1                           00000005
T3CON                             00000FB1
T3INSYNC                          00000002
MPASM  5.41                        PRUEBA.ASM   11-27-2012  14:24:40         PAGE 33


SYMBOL TABLE
  LABEL                             VALUE 

T3SYNC                            00000002
T4CKPS0                           00000000
T4CKPS1                           00000001
T4CON                             00000F76
T4OUTPS0                          00000003
T4OUTPS1                          00000004
T4OUTPS2                          00000005
T4OUTPS3                          00000006
TABLAT                            00000FF5
TBLPTR                            00000FF6
TBLPTRH                           00000FF7
TBLPTRL                           00000FF6
TBLPTRU                           00000FF8
TMP_TX                            00000023
TMR0H                             00000FD7
TMR0IE                            00000005
TMR0IF                            00000002
TMR0IP                            00000002
TMR0L                             00000FD6
TMR0ON                            00000007
TMR1CS                            00000001
TMR1H                             00000FCF
TMR1IE                            00000000
TMR1IF                            00000000
TMR1IP                            00000000
TMR1L                             00000FCE
TMR1ON                            00000000
TMR2                              00000FCC
TMR2IE                            00000001
TMR2IF                            00000001
TMR2IP                            00000001
TMR2ON                            00000002
TMR3CS                            00000001
TMR3H                             00000FB3
TMR3IE                            00000001
TMR3IF                            00000001
TMR3IP                            00000001
TMR3L                             00000FB2
TMR3ON                            00000000
TMR4                              00000F78
TMR4IE                            00000003
TMR4IF                            00000003
TMR4IP                            00000003
TMR4ON                            00000002
TO                                00000003
TOS                               00000FFD
TOSH                              00000FFE
TOSL                              00000FFD
TOSU                              00000FFF
TRISA                             00000F92
TRISA0                            00000000
TRISA1                            00000001
TRISA2                            00000002
MPASM  5.41                        PRUEBA.ASM   11-27-2012  14:24:40         PAGE 34


SYMBOL TABLE
  LABEL                             VALUE 

TRISA3                            00000003
TRISA4                            00000004
TRISA5                            00000005
TRISA6                            00000006
TRISA7                            00000007
TRISB                             00000F93
TRISB0                            00000000
TRISB1                            00000001
TRISB2                            00000002
TRISB3                            00000003
TRISB4                            00000004
TRISB5                            00000005
TRISB6                            00000006
TRISB7                            00000007
TRISC                             00000F94
TRISC0                            00000000
TRISC1                            00000001
TRISC2                            00000002
TRISC3                            00000003
TRISC4                            00000004
TRISC5                            00000005
TRISC6                            00000006
TRISC7                            00000007
TRISD                             00000F95
TRISD0                            00000000
TRISD1                            00000001
TRISD2                            00000002
TRISD3                            00000003
TRISD4                            00000004
TRISD5                            00000005
TRISD6                            00000006
TRISD7                            00000007
TRISE                             00000F96
TRISE0                            00000000
TRISE1                            00000001
TRISE2                            00000002
TRISE3                            00000003
TRISE4                            00000004
TRISE5                            00000005
TRISE6                            00000006
TRISE7                            00000007
TRISF                             00000F97
TRISF0                            00000000
TRISF1                            00000001
TRISF2                            00000002
TRISF3                            00000003
TRISF4                            00000004
TRISF5                            00000005
TRISF6                            00000006
TRISF7                            00000007
TRISG                             00000F98
TRISG0                            00000000
TRISG1                            00000001
MPASM  5.41                        PRUEBA.ASM   11-27-2012  14:24:40         PAGE 35


SYMBOL TABLE
  LABEL                             VALUE 

TRISG2                            00000002
TRISG3                            00000003
TRISG4                            00000004
TRISH                             00000F99
TRISH0                            00000000
TRISH1                            00000001
TRISH2                            00000002
TRISH3                            00000003
TRISH4                            00000004
TRISH5                            00000005
TRISH6                            00000006
TRISH7                            00000007
TRISJ                             00000F9A
TRISJ0                            00000000
TRISJ1                            00000001
TRISJ2                            00000002
TRISJ3                            00000003
TRISJ4                            00000004
TRISJ5                            00000005
TRISJ6                            00000006
TRISJ7                            00000007
TRMT                              00000001
TRMT1                             00000001
TRMT2                             00000001
TUN0                              00000000
TUN1                              00000001
TUN2                              00000002
TUN3                              00000003
TUN4                              00000004
TX                                00000006
TX1                               00000006
TX1IE                             00000004
TX1IF                             00000004
TX1IP                             00000004
TX2                               00000001
TX2IE                             00000004
TX2IF                             00000004
TX2IP                             00000004
TX8_9                             00000006
TX9                               00000006
TX91                              00000006
TX92                              00000006
TX9D                              00000000
TX9D1                             00000000
TX9D2                             00000000
TXD8                              00000000
TXEN                              00000005
TXEN1                             00000005
TXEN2                             00000005
TXIE                              00000004
TXIF                              00000004
TXIP                              00000004
TXREG                             00000FAD
MPASM  5.41                        PRUEBA.ASM   11-27-2012  14:24:40         PAGE 36


SYMBOL TABLE
  LABEL                             VALUE 

TXREG1                            00000FAD
TXREG2                            00000F6D
TXSTA                             00000FAC
TXSTA1                            00000FAC
TXSTA2                            00000F6C
UA                                00000001
UB                                00000007
VALA                              00000000
VALB                              00000001
VCFG0                             00000004
VCFG1                             00000005
VDIRMAG                           00000007
VREFM                             00000002
VREFP                             00000003
W                                 00000000
WAIT0                             00000004
WAIT1                             00000005
WCOL                              00000007
WDTCON                            00000FD1
WM0                               00000000
WM1                               00000001
WR                                00000001
WREG                              00000FE8
WREN                              00000002
WRERR                             00000003
WRH                               00000003
WRL                               00000002
WUE                               00000001
Z                                 00000002
_ADDRBW_ADDR12BIT_3L              000000DF
_ADDRBW_ADDR16BIT_3L              000000EF
_ADDRBW_ADDR20BIT_3L              000000FF
_ADDRBW_ADDR8BIT_3L               000000CF
_BBSIZ_BB2K_4L                    000000CF
_BBSIZ_BB4K_4L                    000000DF
_BBSIZ_BB8K_4L                    000000EF
_BOREN_NOSLP_2L                   000000FD
_BOREN_OFF_2L                     000000F9
_BOREN_ON_2L                      000000FB
_BOREN_SBORDIS_2L                 000000FF
_BORV_0_2L                        000000E7
_BORV_1_2L                        000000EF
_BORV_2_2L                        000000F7
_BORV_3_2L                        000000FF
_CCP2MX_PORTBE_3H                 000000FE
_CCP2MX_PORTC_3H                  000000FF
_CONFIG1H                         00300001
_CONFIG2H                         00300003
_CONFIG2L                         00300002
_CONFIG3H                         00300005
_CONFIG3L                         00300004
_CONFIG4L                         00300006
_CONFIG5H                         00300009
MPASM  5.41                        PRUEBA.ASM   11-27-2012  14:24:40         PAGE 37


SYMBOL TABLE
  LABEL                             VALUE 

_CONFIG5L                         00300008
_CONFIG6H                         0030000B
_CONFIG6L                         0030000A
_CONFIG7H                         0030000D
_CONFIG7L                         0030000C
_CP0_OFF_5L                       000000FF
_CP0_ON_5L                        000000FE
_CP1_OFF_5L                       000000FF
_CP1_ON_5L                        000000FD
_CP2_OFF_5L                       000000FF
_CP2_ON_5L                        000000FB
_CP3_OFF_5L                       000000FF
_CP3_ON_5L                        000000F7
_CP4_OFF_5L                       000000FF
_CP4_ON_5L                        000000EF
_CP5_OFF_5L                       000000FF
_CP5_ON_5L                        000000DF
_CP6_OFF_5L                       000000FF
_CP6_ON_5L                        000000BF
_CP7_OFF_5L                       000000FF
_CP7_ON_5L                        0000007F
_CPB_OFF_5H                       000000FF
_CPB_ON_5H                        000000BF
_CPD_OFF_5H                       000000FF
_CPD_ON_5H                        0000007F
_DATABW_DATA16BIT_3L              000000FF
_DATABW_DATA8BIT_3L               000000BF
_DEBUG_OFF_4L                     000000FF
_DEBUG_ON_4L                      0000007F
_DEVID1                           003FFFFE
_DEVID2                           003FFFFF
_EBTR0_OFF_7L                     000000FF
_EBTR0_ON_7L                      000000FE
_EBTR1_OFF_7L                     000000FF
_EBTR1_ON_7L                      000000FD
_EBTR2_OFF_7L                     000000FF
_EBTR2_ON_7L                      000000FB
_EBTR3_OFF_7L                     000000FF
_EBTR3_ON_7L                      000000F7
_EBTR4_OFF_7L                     000000FF
_EBTR4_ON_7L                      000000EF
_EBTR5_OFF_7L                     000000FF
_EBTR5_ON_7L                      000000DF
_EBTR6_OFF_7L                     000000FF
_EBTR6_ON_7L                      000000BF
_EBTR7_OFF_7L                     000000FF
_EBTR7_ON_7L                      0000007F
_EBTRB_OFF_7H                     000000FF
_EBTRB_ON_7H                      000000BF
_ECCPMX_PORTE_3H                  000000FF
_ECCPMX_PORTH_3H                  000000FD
_FCMEN_OFF_1H                     000000BF
_FCMEN_ON_1H                      000000FF
MPASM  5.41                        PRUEBA.ASM   11-27-2012  14:24:40         PAGE 38


SYMBOL TABLE
  LABEL                             VALUE 

_IDLOC0                           00200000
_IDLOC1                           00200001
_IDLOC2                           00200002
_IDLOC3                           00200003
_IDLOC4                           00200004
_IDLOC5                           00200005
_IDLOC6                           00200006
_IDLOC7                           00200007
_IESO_OFF_1H                      0000007F
_IESO_ON_1H                       000000FF
_LPT1OSC_OFF_3H                   000000FB
_LPT1OSC_ON_3H                    000000FF
_LVP_OFF_4L                       000000FB
_LVP_ON_4L                        000000FF
_MCLRE_OFF_3H                     0000007F
_MCLRE_ON_3H                      000000FF
_MODE_EM_3L                       000000FC
_MODE_MC_3L                       000000FF
_MODE_MPB_3L                      000000FD
_MODE_MP_3L                       000000FE
_OSC_ECIO6_1H                     000000F5
_OSC_EC_1H                        000000F4
_OSC_HSPLL_1H                     000000F6
_OSC_HS_1H                        000000F2
_OSC_INTIO67_1H                   000000F8
_OSC_INTIO7_1H                    000000F9
_OSC_LP_1H                        000000F0
_OSC_RCIO6_1H                     000000F7
_OSC_RC_1H                        000000F3
_OSC_XT_1H                        000000F1
_PWRT_OFF_2L                      000000FF
_PWRT_ON_2L                       000000FE
_STVREN_OFF_4L                    000000FE
_STVREN_ON_4L                     000000FF
_WAIT_OFF_3L                      000000FF
_WAIT_ON_3L                       0000007F
_WDTPS_1024_2H                    000000F5
_WDTPS_128_2H                     000000EF
_WDTPS_16384_2H                   000000FD
_WDTPS_16_2H                      000000E9
_WDTPS_1_2H                       000000E1
_WDTPS_2048_2H                    000000F7
_WDTPS_256_2H                     000000F1
_WDTPS_2_2H                       000000E3
_WDTPS_32768_2H                   000000FF
_WDTPS_32_2H                      000000EB
_WDTPS_4096_2H                    000000F9
_WDTPS_4_2H                       000000E5
_WDTPS_512_2H                     000000F3
_WDTPS_64_2H                      000000ED
_WDTPS_8192_2H                    000000FB
_WDTPS_8_2H                       000000E7
_WDT_OFF_2H                       000000FE
MPASM  5.41                        PRUEBA.ASM   11-27-2012  14:24:40         PAGE 39


SYMBOL TABLE
  LABEL                             VALUE 

_WDT_ON_2H                        000000FF
_WRT0_OFF_6L                      000000FF
_WRT0_ON_6L                       000000FE
_WRT1_OFF_6L                      000000FF
_WRT1_ON_6L                       000000FD
_WRT2_OFF_6L                      000000FF
_WRT2_ON_6L                       000000FB
_WRT3_OFF_6L                      000000FF
_WRT3_ON_6L                       000000F7
_WRT4_OFF_6L                      000000FF
_WRT4_ON_6L                       000000EF
_WRT5_OFF_6L                      000000FF
_WRT5_ON_6L                       000000DF
_WRT6_OFF_6L                      000000FF
_WRT6_ON_6L                       000000BF
_WRT7_OFF_6L                      000000FF
_WRT7_ON_6L                       0000007F
_WRTB_OFF_6H                      000000FF
_WRTB_ON_6H                       000000BF
_WRTC_OFF_6H                      000000FF
_WRTC_ON_6H                       000000DF
_WRTD_OFF_6H                      000000FF
_WRTD_ON_6H                       0000007F
_XINST_OFF_4L                     000000BF
_XINST_ON_4L                      000000FF
__18F8722                         00000001
__DEBUG                           1


MEMORY USAGE MAP ('X' = Used,  '-' = Unused)

0000 : XXXXXXXXXXXXXXXX XXXXXXXXXXXXXXXX XXXXXXXXXXXXXXXX XXXXXXXXXXXXXXXX
0040 : XXXXXXXXXXXXXXXX XXXXXXXXXXXXXXXX XXXXXXXXXXXXXXXX XXXXXXXXXXXXXXXX
0080 : XXXXXXXXXXXXXXXX XXXXXXXXXXXXXXXX XXXXXXXXXXXXXXXX XXXXXXXXXXXXXXXX
00C0 : XXXXXXXXXXXXXXXX XXXXXXXXXXXXXXXX XXXXXXXXXXXXXXXX XXXXXXXXXXXXXXXX
0100 : XXXXXXXXXXXXXXXX XXXXXXXXXXXXXXXX XXXXXXXXXXXXXXXX XXXXXXXXXXXXXXXX
0140 : XXXXXXXXXXXXXXXX XXXXXXXXXXXXXXXX XXXXXXXXXXXXXXXX XXXXXXXXXXXXXXXX
0180 : XXXXXXXXXXXXXXXX XXXXXXXXXXXXXXXX XXXXXXXXXXXXXXXX XXXXXXXXXXXXXXXX
01C0 : XXXXXXXXXXXXXXXX XXXXXXXXXXXXXXXX XXXXXXXXXXXXXXXX XXXXXXXXXXXXXXXX
0200 : XXXXXXXXXXXXXXXX XXXXXXXXXXXXXXXX XXXXXXXXXXXXXXXX XXXXXXXXXXXXXXXX
0240 : XXXXXXXXXXXXXXXX XXXXXXXXXXXXXXXX XXXXXXXXXXXXXXXX XXXXXXXXXXXXXXXX
0280 : XXXXXXXXXXXXXXXX XXXXXXXXXXXXXXXX XXXXXXXXXXXXXXXX XXXXXXXXXXXXXXXX
02C0 : XXXXXXXXXXXXXXXX XXXXXXXXXXXXXXXX XXXXXXXXXXXXXXXX XXXXXXXXXXXXXXXX
0300 : XXXXXXXXXXXXXXXX XXXXXXXXXXXXXXXX XXXXXXXXXXXXXXXX XXXXXXXXXXXXXXXX
0340 : XXXXXXXXXXXXXXXX XXXXXXXXXXXXXXXX XXXXXXXXXXXXXXXX XXXXXXXXXXXXXXXX
0380 : XXXXXXXXXXXXXXXX XXXXXXXXXXXXXXXX XXXXXXXXXXXXXXXX XXXXXXXXXXXXXXXX
MPASM  5.41                        PRUEBA.ASM   11-27-2012  14:24:40         PAGE 40


MEMORY USAGE MAP ('X' = Used,  '-' = Unused)


03C0 : XXXXXXXXXXXXXXXX XXXXXXXXXXXXXXXX XXXXXXXXXXXXXXXX XXXXXXXXXXXXXXXX
0400 : XXXXXXXXXXXXXXXX XXXXXXXXXXXXXXXX XXXXXXXXXXXXXXXX XXXXXXXXXXXXXXXX
0440 : XXXXXXXXXXXXXXXX XXXXXXXXXXXXXXXX XXXXXXXXXXXXXXXX XXXXXXXXXX------
0000 : -XXXXXX-XXXXXX-- ---------------- ---------------- ----------------

All other memory blocks unused.

Program Memory Bytes Used:  1158
Program Memory Bytes Free: 129914


Errors   :     0
Warnings :     2 reported,     0 suppressed
Messages :     1 reported,     0 suppressed

